; ModuleID = '52/4332.c'
source_filename = "52/4332.c"
target datalayout = "e-m:e-p270:32:32-p271:32:32-p272:64:64-i64:64-f80:128-n8:16:32:64-S128"
target triple = "x86_64-pc-linux-gnu"

@.str = private unnamed_addr constant [3 x i8] c"%d\00", align 1
@.str.1 = private unnamed_addr constant [4 x i8] c" %d\00", align 1
@.str.2 = private unnamed_addr constant [2 x i8] c"\0A\00", align 1
@.str.3 = private unnamed_addr constant [5 x i8] c"%d%d\00", align 1

; Function Attrs: noinline nounwind uwtable
define dso_local void @Input(i32* %0, i32 %1) #0 {
  %3 = alloca i32*, align 8
  %4 = alloca i32, align 4
  %5 = alloca i32, align 4
  store i32* %0, i32** %3, align 8
  store i32 %1, i32* %4, align 4
  store i32 0, i32* %5, align 4
  br label %6

6:                                                ; preds = %16, %2
  %7 = load i32, i32* %5, align 4
  %8 = load i32, i32* %4, align 4
  %9 = icmp slt i32 %7, %8
  br i1 %9, label %10, label %19

10:                                               ; preds = %6
  %11 = load i32*, i32** %3, align 8
  %12 = load i32, i32* %5, align 4
  %13 = sext i32 %12 to i64
  %14 = getelementptr inbounds i32, i32* %11, i64 %13
  %15 = call i32 (i8*, ...) @__isoc99_scanf(i8* getelementptr inbounds ([3 x i8], [3 x i8]* @.str, i64 0, i64 0), i32* %14)
  br label %16

16:                                               ; preds = %10
  %17 = load i32, i32* %5, align 4
  %18 = add nsw i32 %17, 1
  store i32 %18, i32* %5, align 4
  br label %6

19:                                               ; preds = %6
  ret void
}

declare dso_local i32 @__isoc99_scanf(i8*, ...) #1

; Function Attrs: noinline nounwind uwtable
define dso_local void @Turn(i32* %0, i32 %1, i32 %2) #0 {
  %4 = alloca i32*, align 8
  %5 = alloca i32, align 4
  %6 = alloca i32, align 4
  %7 = alloca i32, align 4
  %8 = alloca i32, align 4
  %9 = alloca i32, align 4
  store i32* %0, i32** %4, align 8
  store i32 %1, i32* %5, align 4
  store i32 %2, i32* %6, align 4
  %10 = load i32, i32* %5, align 4
  %11 = load i32, i32* %6, align 4
  %12 = sub nsw i32 %10, %11
  store i32 %12, i32* %7, align 4
  br label %13

13:                                               ; preds = %54, %3
  %14 = load i32, i32* %7, align 4
  %15 = load i32, i32* %5, align 4
  %16 = icmp slt i32 %14, %15
  br i1 %16, label %17, label %57

17:                                               ; preds = %13
  %18 = load i32, i32* %7, align 4
  %19 = sub nsw i32 %18, 1
  store i32 %19, i32* %8, align 4
  br label %20

20:                                               ; preds = %50, %17
  %21 = load i32, i32* %8, align 4
  %22 = load i32, i32* %7, align 4
  %23 = load i32, i32* %5, align 4
  %24 = sub nsw i32 %22, %23
  %25 = load i32, i32* %6, align 4
  %26 = add nsw i32 %24, %25
  %27 = icmp sge i32 %21, %26
  br i1 %27, label %28, label %53

28:                                               ; preds = %20
  %29 = load i32*, i32** %4, align 8
  %30 = load i32, i32* %8, align 4
  %31 = sext i32 %30 to i64
  %32 = getelementptr inbounds i32, i32* %29, i64 %31
  %33 = load i32, i32* %32, align 4
  store i32 %33, i32* %9, align 4
  %34 = load i32*, i32** %4, align 8
  %35 = load i32, i32* %8, align 4
  %36 = add nsw i32 %35, 1
  %37 = sext i32 %36 to i64
  %38 = getelementptr inbounds i32, i32* %34, i64 %37
  %39 = load i32, i32* %38, align 4
  %40 = load i32*, i32** %4, align 8
  %41 = load i32, i32* %8, align 4
  %42 = sext i32 %41 to i64
  %43 = getelementptr inbounds i32, i32* %40, i64 %42
  store i32 %39, i32* %43, align 4
  %44 = load i32, i32* %9, align 4
  %45 = load i32*, i32** %4, align 8
  %46 = load i32, i32* %8, align 4
  %47 = add nsw i32 %46, 1
  %48 = sext i32 %47 to i64
  %49 = getelementptr inbounds i32, i32* %45, i64 %48
  store i32 %44, i32* %49, align 4
  br label %50

50:                                               ; preds = %28
  %51 = load i32, i32* %8, align 4
  %52 = add nsw i32 %51, -1
  store i32 %52, i32* %8, align 4
  br label %20

53:                                               ; preds = %20
  br label %54

54:                                               ; preds = %53
  %55 = load i32, i32* %7, align 4
  %56 = add nsw i32 %55, 1
  store i32 %56, i32* %7, align 4
  br label %13

57:                                               ; preds = %13
  ret void
}

; Function Attrs: noinline nounwind uwtable
define dso_local i32 @Output(i32* %0, i32 %1) #0 {
  %3 = alloca i32, align 4
  %4 = alloca i32*, align 8
  %5 = alloca i32, align 4
  %6 = alloca i32, align 4
  store i32* %0, i32** %4, align 8
  store i32 %1, i32* %5, align 4
  %7 = load i32*, i32** %4, align 8
  %8 = getelementptr inbounds i32, i32* %7, i64 0
  %9 = load i32, i32* %8, align 4
  %10 = call i32 (i8*, ...) @printf(i8* getelementptr inbounds ([3 x i8], [3 x i8]* @.str, i64 0, i64 0), i32 %9)
  store i32 1, i32* %6, align 4
  br label %11

11:                                               ; preds = %22, %2
  %12 = load i32, i32* %6, align 4
  %13 = load i32, i32* %5, align 4
  %14 = icmp slt i32 %12, %13
  br i1 %14, label %15, label %25

15:                                               ; preds = %11
  %16 = load i32*, i32** %4, align 8
  %17 = load i32, i32* %6, align 4
  %18 = sext i32 %17 to i64
  %19 = getelementptr inbounds i32, i32* %16, i64 %18
  %20 = load i32, i32* %19, align 4
  %21 = call i32 (i8*, ...) @printf(i8* getelementptr inbounds ([4 x i8], [4 x i8]* @.str.1, i64 0, i64 0), i32 %20)
  br label %22

22:                                               ; preds = %15
  %23 = load i32, i32* %6, align 4
  %24 = add nsw i32 %23, 1
  store i32 %24, i32* %6, align 4
  br label %11

25:                                               ; preds = %11
  %26 = call i32 (i8*, ...) @printf(i8* getelementptr inbounds ([2 x i8], [2 x i8]* @.str.2, i64 0, i64 0))
  %27 = load i32, i32* %3, align 4
  ret i32 %27
}

declare dso_local i32 @printf(i8*, ...) #1

; Function Attrs: noinline nounwind uwtable
define dso_local void @main() #0 {
  %1 = alloca i32, align 4
  %2 = alloca i32, align 4
  %3 = alloca [100 x i32], align 16
  %4 = call i32 (i8*, ...) @__isoc99_scanf(i8* getelementptr inbounds ([5 x i8], [5 x i8]* @.str.3, i64 0, i64 0), i32* %1, i32* %2)
  %5 = getelementptr inbounds [100 x i32], [100 x i32]* %3, i64 0, i64 0
  %6 = load i32, i32* %1, align 4
  call void @Input(i32* %5, i32 %6)
  %7 = getelementptr inbounds [100 x i32], [100 x i32]* %3, i64 0, i64 0
  %8 = load i32, i32* %1, align 4
  %9 = load i32, i32* %2, align 4
  call void @Turn(i32* %7, i32 %8, i32 %9)
  %10 = getelementptr inbounds [100 x i32], [100 x i32]* %3, i64 0, i64 0
  %11 = load i32, i32* %1, align 4
  %12 = call i32 @Output(i32* %10, i32 %11)
  ret void
}


!llvm.module.flags = !{!0}
!llvm.ident = !{!1}

!0 = !{i32 1, !"wchar_size", i32 4}
!1 = !{!"clang version 10.0.0-4ubuntu1 "}
